; Function Attrs: mustprogress uwtable
define void @_ZNK8facebook5velox4exec4Expr5toSqlB5cxx11EPSt6vectorISt10shared_ptrINS0_10BaseVectorEESaIS6_EE(ptr noalias sret(%"class.std::__cxx11::basic_string") align 8 %agg.result, ptr noundef nonnull align 8 dereferenceable(442) %this, ptr noundef %complexConstants) unnamed_addr #3 align 2 personality ptr @__gxx_personality_v0 {
entry:
  %out = alloca %"class.std::__cxx11::basic_stringstream", align 8
  call void @_ZNSt7__cxx1118basic_stringstreamIcSt11char_traitsIcESaIcEEC1Ev(ptr noundef nonnull align 8 dereferenceable(128) %out)
  %add.ptr = getelementptr inbounds i8, ptr %out, i64 16
  %call = invoke noundef nonnull align 8 dereferenceable(8) ptr @_ZStlsISt11char_traitsIcEERSt13basic_ostreamIcT_ES5_PKc(ptr noundef nonnull align 8 dereferenceable(8) %add.ptr, ptr noundef nonnull @.str.8)
          to label %invoke.cont unwind label %lpad

invoke.cont:                                      ; preds = %entry
  %name_ = getelementptr inbounds i8, ptr %this, i64 48
  %call3 = invoke noundef nonnull align 8 dereferenceable(8) ptr @_ZStlsIcSt11char_traitsIcESaIcEERSt13basic_ostreamIT_T0_ES7_RKNSt7__cxx1112basic_stringIS4_S5_T1_EE(ptr noundef nonnull align 8 dereferenceable(8) %call, ptr noundef nonnull align 8 dereferenceable(32) %name_)
          to label %invoke.cont2 unwind label %lpad

invoke.cont2:                                     ; preds = %invoke.cont
  %call5 = invoke noundef nonnull align 8 dereferenceable(8) ptr @_ZStlsISt11char_traitsIcEERSt13basic_ostreamIcT_ES5_PKc(ptr noundef nonnull align 8 dereferenceable(8) %call3, ptr noundef nonnull @.str.8)
          to label %invoke.cont4 unwind label %lpad

invoke.cont4:                                     ; preds = %invoke.cont2
  invoke void @_ZNK8facebook5velox4exec4Expr15appendInputsSqlERNSt7__cxx1118basic_stringstreamIcSt11char_traitsIcESaIcEEEPSt6vectorISt10shared_ptrINS0_10BaseVectorEESaISD_EE(ptr noundef nonnull align 8 dereferenceable(442) %this, ptr noundef nonnull align 8 dereferenceable(128) %out, ptr noundef %complexConstants)
          to label %invoke.cont6 unwind label %lpad

invoke.cont6:                                     ; preds = %invoke.cont4
  invoke void @_ZNKSt7__cxx1118basic_stringstreamIcSt11char_traitsIcESaIcEE3strEv(ptr sret(%"class.std::__cxx11::basic_string") align 8 %agg.result, ptr noundef nonnull align 8 dereferenceable(128) %out)
          to label %invoke.cont7 unwind label %lpad

invoke.cont7:                                     ; preds = %invoke.cont6
  call void @_ZNSt7__cxx1118basic_stringstreamIcSt11char_traitsIcESaIcEED1Ev(ptr noundef nonnull align 8 dereferenceable(128) %out) #31
  ret void

lpad:                                             ; preds = %invoke.cont6, %invoke.cont4, %invoke.cont2, %invoke.cont, %entry
  %0 = landingpad { ptr, i32 }
          cleanup
  call void @_ZNSt7__cxx1118basic_stringstreamIcSt11char_traitsIcESaIcEED1Ev(ptr noundef nonnull align 8 dereferenceable(128) %out) #31
  resume { ptr, i32 } %0
}